target datalayout = "e-m:e-p270:32:32-p271:32:32-p272:64:64-i64:64-i128:128-f80:128-n8:16:32:64-S128"
target triple = "x86_64-pc-linux-gnu"

; Function Attrs: nounwind null_pointer_is_valid sspstrong uwtable
define hidden i32 @logcat_exported_pdu_length(ptr noundef %0) #0 {
  %2 = alloca ptr, align 8
  %3 = alloca ptr, align 8
  %4 = alloca ptr, align 8
  %5 = alloca i32, align 4
  store ptr %0, ptr %2, align 8
  call void @llvm.lifetime.start.p0(i64 8, ptr %3) #12
  call void @llvm.lifetime.start.p0(i64 8, ptr %4) #12
  call void @llvm.lifetime.start.p0(i64 4, ptr %5) #12
  store i32 0, ptr %5, align 4
  %6 = load ptr, ptr %2, align 8
  store ptr %6, ptr %3, align 8
  br label %7

7:                                                ; preds = %23, %1
  %8 = load ptr, ptr %3, align 8
  %9 = load i16, ptr %8, align 2
  %10 = zext i16 %9 to i32
  %11 = ashr i32 %10, 8
  %12 = trunc i32 %11 to i16
  %13 = zext i16 %12 to i32
  %14 = load ptr, ptr %3, align 8
  %15 = load i16, ptr %14, align 2
  %16 = zext i16 %15 to i32
  %17 = shl i32 %16, 8
  %18 = trunc i32 %17 to i16
  %19 = zext i16 %18 to i32
  %20 = or i32 %13, %19
  %21 = trunc i32 %20 to i16
  %22 = icmp ne i16 %21, 0
  br i1 %22, label %23, label %64

23:                                               ; preds = %7
  %24 = load ptr, ptr %2, align 8
  %25 = getelementptr i8, ptr %24, i64 2
  store ptr %25, ptr %4, align 8
  %26 = load ptr, ptr %4, align 8
  %27 = load i16, ptr %26, align 2
  %28 = zext i16 %27 to i32
  %29 = ashr i32 %28, 8
  %30 = trunc i32 %29 to i16
  %31 = zext i16 %30 to i32
  %32 = load ptr, ptr %4, align 8
  %33 = load i16, ptr %32, align 2
  %34 = zext i16 %33 to i32
  %35 = shl i32 %34, 8
  %36 = trunc i32 %35 to i16
  %37 = zext i16 %36 to i32
  %38 = or i32 %31, %37
  %39 = trunc i32 %38 to i16
  %40 = sext i16 %39 to i32
  %41 = add i32 4, %40
  %42 = load i32, ptr %5, align 4
  %43 = add i32 %42, %41
  store i32 %43, ptr %5, align 4
  %44 = load ptr, ptr %4, align 8
  %45 = load i16, ptr %44, align 2
  %46 = zext i16 %45 to i32
  %47 = ashr i32 %46, 8
  %48 = trunc i32 %47 to i16
  %49 = zext i16 %48 to i32
  %50 = load ptr, ptr %4, align 8
  %51 = load i16, ptr %50, align 2
  %52 = zext i16 %51 to i32
  %53 = shl i32 %52, 8
  %54 = trunc i32 %53 to i16
  %55 = zext i16 %54 to i32
  %56 = or i32 %49, %55
  %57 = trunc i32 %56 to i16
  %58 = sext i16 %57 to i32
  %59 = add i32 4, %58
  %60 = load ptr, ptr %2, align 8
  %61 = sext i32 %59 to i64
  %62 = getelementptr i8, ptr %60, i64 %61
  store ptr %62, ptr %2, align 8
  %63 = load ptr, ptr %2, align 8
  store ptr %63, ptr %3, align 8
  br label %7, !llvm.loop !6

64:                                               ; preds = %7
  %65 = load i32, ptr %5, align 4
  %66 = add i32 %65, 4
  store i32 %66, ptr %5, align 4
  %67 = load i32, ptr %5, align 4
  call void @llvm.lifetime.end.p0(i64 4, ptr %5) #12
  call void @llvm.lifetime.end.p0(i64 8, ptr %4) #12
  call void @llvm.lifetime.end.p0(i64 8, ptr %3) #12
  ret i32 %67
}