; Function Attrs: nofree norecurse nosync nounwind null_pointer_is_valid sspstrong memory(argmem: read) uwtable
define hidden i32 @logcat_exported_pdu_length(ptr noundef readonly captures(none) %0) local_unnamed_addr #0 {
  %2 = load i16, ptr %0, align 2
  %.not14 = icmp eq i16 %2, 0
  br i1 %.not14, label %._crit_edge, label %.lr.ph

.lr.ph:                                           ; preds = %1, %.lr.ph
  %.016 = phi i32 [ %7, %.lr.ph ], [ 0, %1 ]
  %.01215 = phi ptr [ %9, %.lr.ph ], [ %0, %1 ]
  %3 = getelementptr i8, ptr %.01215, i64 2
  %4 = load i16, ptr %3, align 2
  %rev = tail call i16 @llvm.bswap.i16(i16 %4)
  %5 = sext i16 %rev to i32
  %6 = add nsw i32 %5, 4
  %7 = add i32 %6, %.016
  %8 = sext i32 %6 to i64
  %9 = getelementptr i8, ptr %.01215, i64 %8
  %10 = load i16, ptr %9, align 2
  %.not = icmp eq i16 %10, 0
  br i1 %.not, label %._crit_edge.loopexit, label %.lr.ph, !llvm.loop !6

._crit_edge.loopexit:                             ; preds = %.lr.ph
  %11 = add i32 %7, 4
  br label %._crit_edge

._crit_edge:                                      ; preds = %._crit_edge.loopexit, %1
  %.0.lcssa = phi i32 [ 4, %1 ], [ %11, %._crit_edge.loopexit ]
  ret i32 %.0.lcssa
}